target datalayout = "e-m:e-p270:32:32-p271:32:32-p272:64:64-i64:64-i128:128-f80:128-n8:16:32:64-S128"
target triple = "x86_64-pc-linux-gnu"

%struct.H5FD_sec2_t = type { %struct.H5FD_t, i32, i64, i64, i8, [1024 x i8], i64, i64, i8 }
%struct.H5FD_t = type { i64, ptr, i64, i32, i64, i64, i64, i64, i64, i8 }

; Function Attrs: nounwind uwtable
define internal i32 @H5FD__sec2_cmp(ptr noundef %0, ptr noundef %1) #0 {
  %3 = alloca ptr, align 8
  %4 = alloca ptr, align 8
  %5 = alloca ptr, align 8
  %6 = alloca ptr, align 8
  %7 = alloca i32, align 4
  store ptr %0, ptr %3, align 8
  store ptr %1, ptr %4, align 8
  %8 = load ptr, ptr %3, align 8
  store ptr %8, ptr %5, align 8
  %9 = load ptr, ptr %4, align 8
  store ptr %9, ptr %6, align 8
  store i32 0, ptr %7, align 4
  %10 = load ptr, ptr %5, align 8
  %11 = getelementptr inbounds %struct.H5FD_sec2_t, ptr %10, i32 0, i32 6
  %12 = load i64, ptr %11, align 8
  %13 = load ptr, ptr %6, align 8
  %14 = getelementptr inbounds %struct.H5FD_sec2_t, ptr %13, i32 0, i32 6
  %15 = load i64, ptr %14, align 8
  %16 = icmp ult i64 %12, %15
  br i1 %16, label %17, label %20

17:                                               ; preds = %2
  br label %18

18:                                               ; preds = %17
  store i32 -1, ptr %7, align 4
  br label %54

19:                                               ; No predecessors!
  br label %20

20:                                               ; preds = %19, %2
  %21 = load ptr, ptr %5, align 8
  %22 = getelementptr inbounds %struct.H5FD_sec2_t, ptr %21, i32 0, i32 6
  %23 = load i64, ptr %22, align 8
  %24 = load ptr, ptr %6, align 8
  %25 = getelementptr inbounds %struct.H5FD_sec2_t, ptr %24, i32 0, i32 6
  %26 = load i64, ptr %25, align 8
  %27 = icmp ugt i64 %23, %26
  br i1 %27, label %28, label %31

28:                                               ; preds = %20
  br label %29

29:                                               ; preds = %28
  store i32 1, ptr %7, align 4
  br label %54

30:                                               ; No predecessors!
  br label %31

31:                                               ; preds = %30, %20
  %32 = load ptr, ptr %5, align 8
  %33 = getelementptr inbounds %struct.H5FD_sec2_t, ptr %32, i32 0, i32 7
  %34 = load i64, ptr %33, align 8
  %35 = load ptr, ptr %6, align 8
  %36 = getelementptr inbounds %struct.H5FD_sec2_t, ptr %35, i32 0, i32 7
  %37 = load i64, ptr %36, align 8
  %38 = icmp ult i64 %34, %37
  br i1 %38, label %39, label %42

39:                                               ; preds = %31
  br label %40

40:                                               ; preds = %39
  store i32 -1, ptr %7, align 4
  br label %54

41:                                               ; No predecessors!
  br label %42

42:                                               ; preds = %41, %31
  %43 = load ptr, ptr %5, align 8
  %44 = getelementptr inbounds %struct.H5FD_sec2_t, ptr %43, i32 0, i32 7
  %45 = load i64, ptr %44, align 8
  %46 = load ptr, ptr %6, align 8
  %47 = getelementptr inbounds %struct.H5FD_sec2_t, ptr %46, i32 0, i32 7
  %48 = load i64, ptr %47, align 8
  %49 = icmp ugt i64 %45, %48
  br i1 %49, label %50, label %53

50:                                               ; preds = %42
  br label %51

51:                                               ; preds = %50
  store i32 1, ptr %7, align 4
  br label %54

52:                                               ; No predecessors!
  br label %53

53:                                               ; preds = %52, %42
  br label %54

54:                                               ; preds = %53, %51, %40, %29, %18
  %55 = load i32, ptr %7, align 4
  ret i32 %55
}