; Function Attrs: mustprogress nofree norecurse nosync nounwind willreturn memory(argmem: read) uwtable
define internal range(i32 -1, 2) i32 @H5FD__sec2_cmp(ptr nocapture noundef readonly %0, ptr nocapture noundef readonly %1) #5 {
  %3 = getelementptr inbounds i8, ptr %0, i64 1136
  %4 = load i64, ptr %3, align 8
  %5 = getelementptr inbounds i8, ptr %1, i64 1136
  %6 = load i64, ptr %5, align 8
  %7 = icmp ult i64 %4, %6
  br i1 %7, label %18, label %8

8:                                                ; preds = %2
  %9 = icmp ugt i64 %4, %6
  br i1 %9, label %18, label %10

10:                                               ; preds = %8
  %11 = getelementptr inbounds i8, ptr %0, i64 1144
  %12 = load i64, ptr %11, align 8
  %13 = getelementptr inbounds i8, ptr %1, i64 1144
  %14 = load i64, ptr %13, align 8
  %15 = icmp ult i64 %12, %14
  br i1 %15, label %18, label %16

16:                                               ; preds = %10
  %17 = icmp ugt i64 %12, %14
  %spec.select = zext i1 %17 to i32
  br label %18

18:                                               ; preds = %16, %10, %8, %2
  %.0 = phi i32 [ -1, %2 ], [ 1, %8 ], [ -1, %10 ], [ %spec.select, %16 ]
  ret i32 %.0
}